target datalayout = "e-m:e-p270:32:32-p271:32:32-p272:64:64-i64:64-i128:128-f80:128-n8:16:32:64-S128"
target triple = "x86_64-pc-linux-gnu"

; Function Attrs: inlinehint mustprogress nounwind uwtable
define linkonce_odr dso_local noundef nonnull align 8 dereferenceable(8) ptr @_ZSt3minImERKT_S2_S2_(ptr noundef nonnull align 8 dereferenceable(8) %0, ptr noundef nonnull align 8 dereferenceable(8) %1) #6 comdat {
  %3 = alloca ptr, align 8
  %4 = alloca ptr, align 8
  %5 = alloca ptr, align 8
  store ptr %0, ptr %4, align 8, !tbaa !98
  store ptr %1, ptr %5, align 8, !tbaa !98
  %6 = load ptr, ptr %5, align 8, !tbaa !98
  %7 = load i64, ptr %6, align 8, !tbaa !27
  %8 = load ptr, ptr %4, align 8, !tbaa !98
  %9 = load i64, ptr %8, align 8, !tbaa !27
  %10 = icmp ult i64 %7, %9
  br i1 %10, label %11, label %13

11:                                               ; preds = %2
  %12 = load ptr, ptr %5, align 8, !tbaa !98
  store ptr %12, ptr %3, align 8
  br label %15

13:                                               ; preds = %2
  %14 = load ptr, ptr %4, align 8, !tbaa !98
  store ptr %14, ptr %3, align 8
  br label %15

15:                                               ; preds = %13, %11
  %16 = load ptr, ptr %3, align 8
  ret ptr %16
}

; Function Attrs: inlinehint mustprogress nounwind uwtable
define linkonce_odr dso_local noundef nonnull align 8 dereferenceable(8) ptr @_ZSt3maxImERKT_S2_S2_(ptr noundef nonnull align 8 dereferenceable(8) %0, ptr noundef nonnull align 8 dereferenceable(8) %1) #6 comdat {
  %3 = alloca ptr, align 8
  %4 = alloca ptr, align 8
  %5 = alloca ptr, align 8
  store ptr %0, ptr %4, align 8, !tbaa !98
  store ptr %1, ptr %5, align 8, !tbaa !98
  %6 = load ptr, ptr %4, align 8, !tbaa !98
  %7 = load i64, ptr %6, align 8, !tbaa !27
  %8 = load ptr, ptr %5, align 8, !tbaa !98
  %9 = load i64, ptr %8, align 8, !tbaa !27
  %10 = icmp ult i64 %7, %9
  br i1 %10, label %11, label %13

11:                                               ; preds = %2
  %12 = load ptr, ptr %5, align 8, !tbaa !98
  store ptr %12, ptr %3, align 8
  br label %15

13:                                               ; preds = %2
  %14 = load ptr, ptr %4, align 8, !tbaa !98
  store ptr %14, ptr %3, align 8
  br label %15

15:                                               ; preds = %13, %11
  %16 = load ptr, ptr %3, align 8
  ret ptr %16
}

; Function Attrs: mustprogress uwtable
define dso_local noundef i32 @_ZN11VSpellCheck14cutoffDistanceEmm(i64 noundef %0, i64 noundef %1) #5 align 2 {
  %3 = alloca i32, align 4
  %4 = alloca i64, align 8
  %5 = alloca i64, align 8
  %6 = alloca i64, align 8
  %7 = alloca i64, align 8
  %8 = alloca i32, align 4
  %9 = alloca i64, align 8
  %10 = alloca i64, align 8
  store i64 %0, ptr %4, align 8, !tbaa !27
  store i64 %1, ptr %5, align 8, !tbaa !27
  call void @llvm.lifetime.start.p0(i64 8, ptr %6) #3
  %11 = call noundef nonnull align 8 dereferenceable(8) ptr @_ZSt3maxImERKT_S2_S2_(ptr noundef nonnull align 8 dereferenceable(8) %4, ptr noundef nonnull align 8 dereferenceable(8) %5)
  %12 = load i64, ptr %11, align 8, !tbaa !27
  store i64 %12, ptr %6, align 8, !tbaa !27
  call void @llvm.lifetime.start.p0(i64 8, ptr %7) #3
  %13 = call noundef nonnull align 8 dereferenceable(8) ptr @_ZSt3minImERKT_S2_S2_(ptr noundef nonnull align 8 dereferenceable(8) %4, ptr noundef nonnull align 8 dereferenceable(8) %5)
  %14 = load i64, ptr %13, align 8, !tbaa !27
  store i64 %14, ptr %7, align 8, !tbaa !27
  %15 = load i64, ptr %6, align 8, !tbaa !27
  %16 = icmp ule i64 %15, 1
  br i1 %16, label %17, label %18

17:                                               ; preds = %2
  store i32 0, ptr %3, align 4
  store i32 1, ptr %8, align 4
  br label %34

18:                                               ; preds = %2
  %19 = load i64, ptr %6, align 8, !tbaa !27
  %20 = load i64, ptr %7, align 8, !tbaa !27
  %21 = sub i64 %19, %20
  %22 = icmp ule i64 %21, 1
  br i1 %22, label %23, label %29

23:                                               ; preds = %18
  call void @llvm.lifetime.start.p0(i64 8, ptr %9) #3
  %24 = load i64, ptr %6, align 8, !tbaa !27
  %25 = udiv i64 %24, 3
  store i64 %25, ptr %9, align 8, !tbaa !27
  call void @llvm.lifetime.start.p0(i64 8, ptr %10) #3
  store i64 1, ptr %10, align 8, !tbaa !27
  %26 = call noundef nonnull align 8 dereferenceable(8) ptr @_ZSt3maxImERKT_S2_S2_(ptr noundef nonnull align 8 dereferenceable(8) %9, ptr noundef nonnull align 8 dereferenceable(8) %10)
  %27 = load i64, ptr %26, align 8, !tbaa !27
  %28 = trunc i64 %27 to i32
  store i32 %28, ptr %3, align 4
  call void @llvm.lifetime.end.p0(i64 8, ptr %10) #3
  call void @llvm.lifetime.end.p0(i64 8, ptr %9) #3
  store i32 1, ptr %8, align 4
  br label %34

29:                                               ; preds = %18
  %30 = load i64, ptr %6, align 8, !tbaa !27
  %31 = add i64 %30, 2
  %32 = udiv i64 %31, 3
  %33 = trunc i64 %32 to i32
  store i32 %33, ptr %3, align 4
  store i32 1, ptr %8, align 4
  br label %34

34:                                               ; preds = %29, %23, %17
  call void @llvm.lifetime.end.p0(i64 8, ptr %7) #3
  call void @llvm.lifetime.end.p0(i64 8, ptr %6) #3
  %35 = load i32, ptr %3, align 4
  ret i32 %35
}