; Function Attrs: mustprogress nofree norecurse nosync nounwind willreturn memory(none) uwtable
define dso_local noundef i32 @_ZN11VSpellCheck14cutoffDistanceEmm(i64 noundef %0, i64 noundef %1) local_unnamed_addr #20 align 2 {
  %.sroa.speculated16 = tail call i64 @llvm.umax.i64(i64 %0, i64 %1)
  %3 = icmp ult i64 %.sroa.speculated16, 2
  br i1 %3, label %16, label %4

4:                                                ; preds = %2
  %.sroa.speculated13 = tail call i64 @llvm.umin.i64(i64 %1, i64 %0)
  %5 = sub i64 %.sroa.speculated16, %.sroa.speculated13
  %6 = icmp ult i64 %5, 2
  br i1 %6, label %7, label %12

7:                                                ; preds = %4
  %8 = udiv i64 %.sroa.speculated16, 3
  %9 = icmp eq i64 %.sroa.speculated16, 2
  %10 = trunc i64 %8 to i32
  %11 = select i1 %9, i32 1, i32 %10
  br label %16

12:                                               ; preds = %4
  %13 = add i64 %.sroa.speculated16, 2
  %14 = udiv i64 %13, 3
  %15 = trunc i64 %14 to i32
  br label %16

16:                                               ; preds = %2, %12, %7
  %.0 = phi i32 [ %11, %7 ], [ %15, %12 ], [ 0, %2 ]
  ret i32 %.0
}